target datalayout = "e-m:e-p270:32:32-p271:32:32-p272:64:64-i64:64-i128:128-f80:128-n8:16:32:64-S128"
target triple = "x86_64-pc-linux-gnu"

%struct.zmq_msg_t = type { [64 x i8] }

@stderr = external global ptr, align 8
@.str = private unnamed_addr constant [12 x i8] c"%s (%s:%d)\0A\00", align 1
@.str.1 = private unnamed_addr constant [103 x i8] c"generated/home/dtcxzyw/WorkSpace/Projects/compilers/llvm-opt-benchmark/bench/libzmq/libzmq/src/zmq.cpp\00", align 1

; Function Attrs: mustprogress uwtable
define i64 @zmq_msg_size(ptr noundef %0) #1 {
  %2 = alloca ptr, align 8
  store ptr %0, ptr %2, align 8, !tbaa !23
  %3 = load ptr, ptr %2, align 8, !tbaa !23
  %4 = call noundef i64 @_ZNK3zmq5msg_t4sizeEv(ptr noundef nonnull align 8 dereferenceable(64) %3)
  ret i64 %4
}

; Function Attrs: mustprogress uwtable
define ptr @zmq_msg_data(ptr noundef %0) #1 {
  %2 = alloca ptr, align 8
  store ptr %0, ptr %2, align 8, !tbaa !23
  %3 = load ptr, ptr %2, align 8, !tbaa !23
  %4 = call noundef ptr @_ZN3zmq5msg_t4dataEv(ptr noundef nonnull align 8 dereferenceable(64) %3)
  ret ptr %4
}

; Function Attrs: mustprogress uwtable
define i32 @zmq_msg_close(ptr noundef %0) #1 {
  %2 = alloca ptr, align 8
  store ptr %0, ptr %2, align 8, !tbaa !23
  %3 = load ptr, ptr %2, align 8, !tbaa !23
  %4 = call noundef i32 @_ZN3zmq5msg_t5closeEv(ptr noundef nonnull align 8 dereferenceable(64) %3)
  ret i32 %4
}

; Function Attrs: mustprogress uwtable
define internal noundef i32 @_ZL9s_recvmsgPN3zmq13socket_base_tEP9zmq_msg_ti(ptr noundef %0, ptr noundef %1, i32 noundef %2) #1 {
  %4 = alloca i32, align 4
  %5 = alloca ptr, align 8
  %6 = alloca ptr, align 8
  %7 = alloca i32, align 4
  %8 = alloca i32, align 4
  %9 = alloca i32, align 4
  %10 = alloca i64, align 8
  store ptr %0, ptr %5, align 8, !tbaa !17
  store ptr %1, ptr %6, align 8, !tbaa !23
  store i32 %2, ptr %7, align 4, !tbaa !8
  call void @llvm.lifetime.start.p0(i64 4, ptr %8) #20
  %11 = load ptr, ptr %5, align 8, !tbaa !17
  %12 = load ptr, ptr %6, align 8, !tbaa !23
  %13 = load i32, ptr %7, align 4, !tbaa !8
  %14 = call noundef i32 @_ZN3zmq13socket_base_t4recvEPNS_5msg_tEi(ptr noundef nonnull align 8 dereferenceable(1825) %11, ptr noundef %12, i32 noundef %13)
  store i32 %14, ptr %8, align 4, !tbaa !8
  %15 = load i32, ptr %8, align 4, !tbaa !8
  %16 = icmp slt i32 %15, 0
  %17 = zext i1 %16 to i64
  %18 = call i64 @llvm.expect.i64(i64 %17, i64 0)
  %19 = icmp ne i64 %18, 0
  br i1 %19, label %20, label %21

20:                                               ; preds = %3
  store i32 -1, ptr %4, align 4
  store i32 1, ptr %9, align 4
  br label %32

21:                                               ; preds = %3
  call void @llvm.lifetime.start.p0(i64 8, ptr %10) #20
  %22 = load ptr, ptr %6, align 8, !tbaa !23
  %23 = call i64 @zmq_msg_size(ptr noundef %22)
  store i64 %23, ptr %10, align 8, !tbaa !13
  %24 = load i64, ptr %10, align 8, !tbaa !13
  %25 = icmp ult i64 %24, 2147483647
  br i1 %25, label %26, label %28

26:                                               ; preds = %21
  %27 = load i64, ptr %10, align 8, !tbaa !13
  br label %29

28:                                               ; preds = %21
  br label %29

29:                                               ; preds = %28, %26
  %30 = phi i64 [ %27, %26 ], [ 2147483647, %28 ]
  %31 = trunc i64 %30 to i32
  store i32 %31, ptr %4, align 4
  store i32 1, ptr %9, align 4
  call void @llvm.lifetime.end.p0(i64 8, ptr %10) #20
  br label %32

32:                                               ; preds = %29, %20
  call void @llvm.lifetime.end.p0(i64 4, ptr %8) #20
  %33 = load i32, ptr %4, align 4
  ret i32 %33
}

; Function Attrs: mustprogress uwtable
define i32 @zmq_msg_init(ptr noundef %0) #1 {
  %2 = alloca ptr, align 8
  store ptr %0, ptr %2, align 8, !tbaa !23
  %3 = load ptr, ptr %2, align 8, !tbaa !23
  %4 = call noundef i32 @_ZN3zmq5msg_t4initEv(ptr noundef nonnull align 8 dereferenceable(64) %3)
  ret i32 %4
}

; Function Attrs: mustprogress uwtable
define internal noundef ptr @_ZL16as_socket_base_tPv(ptr noundef %0) #1 {
  %2 = alloca ptr, align 8
  %3 = alloca ptr, align 8
  %4 = alloca ptr, align 8
  %5 = alloca i32, align 4
  store ptr %0, ptr %3, align 8, !tbaa !12
  call void @llvm.lifetime.start.p0(i64 8, ptr %4) #20
  %6 = load ptr, ptr %3, align 8, !tbaa !12
  store ptr %6, ptr %4, align 8, !tbaa !17
  %7 = load ptr, ptr %3, align 8, !tbaa !12
  %8 = icmp ne ptr %7, null
  br i1 %8, label %9, label %12

9:                                                ; preds = %1
  %10 = load ptr, ptr %4, align 8, !tbaa !17
  %11 = call noundef zeroext i1 @_ZNK3zmq13socket_base_t9check_tagEv(ptr noundef nonnull align 8 dereferenceable(1825) %10)
  br i1 %11, label %14, label %12

12:                                               ; preds = %9, %1
  %13 = call ptr @__errno_location() #19
  store i32 88, ptr %13, align 4, !tbaa !8
  store ptr null, ptr %2, align 8
  store i32 1, ptr %5, align 4
  br label %16

14:                                               ; preds = %9
  %15 = load ptr, ptr %4, align 8, !tbaa !17
  store ptr %15, ptr %2, align 8
  store i32 1, ptr %5, align 4
  br label %16

16:                                               ; preds = %14, %12
  call void @llvm.lifetime.end.p0(i64 8, ptr %4) #20
  %17 = load ptr, ptr %2, align 8
  ret ptr %17
}

; Function Attrs: mustprogress uwtable
define i32 @zmq_recv(ptr noundef %0, ptr noundef %1, i64 noundef %2, i32 noundef %3) #1 {
  %5 = alloca i32, align 4
  %6 = alloca ptr, align 8
  %7 = alloca ptr, align 8
  %8 = alloca i64, align 8
  %9 = alloca i32, align 4
  %10 = alloca ptr, align 8
  %11 = alloca i32, align 4
  %12 = alloca %struct.zmq_msg_t, align 8
  %13 = alloca i32, align 4
  %14 = alloca ptr, align 8
  %15 = alloca i32, align 4
  %16 = alloca i32, align 4
  %17 = alloca ptr, align 8
  %18 = alloca i64, align 8
  %19 = alloca ptr, align 8
  store ptr %0, ptr %6, align 8, !tbaa !12
  store ptr %1, ptr %7, align 8, !tbaa !12
  store i64 %2, ptr %8, align 8, !tbaa !13
  store i32 %3, ptr %9, align 4, !tbaa !8
  call void @llvm.lifetime.start.p0(i64 8, ptr %10) #20
  %20 = load ptr, ptr %6, align 8, !tbaa !12
  %21 = call noundef ptr @_ZL16as_socket_base_tPv(ptr noundef %20)
  store ptr %21, ptr %10, align 8, !tbaa !17
  %22 = load ptr, ptr %10, align 8, !tbaa !17
  %23 = icmp ne ptr %22, null
  br i1 %23, label %25, label %24

24:                                               ; preds = %4
  store i32 -1, ptr %5, align 4
  store i32 1, ptr %11, align 4
  br label %123

25:                                               ; preds = %4
  call void @llvm.lifetime.start.p0(i64 64, ptr %12) #20
  call void @llvm.lifetime.start.p0(i64 4, ptr %13) #20
  %26 = call i32 @zmq_msg_init(ptr noundef %12)
  store i32 %26, ptr %13, align 4, !tbaa !8
  br label %27

27:                                               ; preds = %25
  %28 = load i32, ptr %13, align 4, !tbaa !8
  %29 = icmp eq i32 %28, 0
  %30 = xor i1 %29, true
  %31 = zext i1 %30 to i64
  %32 = call i64 @llvm.expect.i64(i64 %31, i64 0)
  %33 = icmp ne i64 %32, 0
  br i1 %33, label %34, label %44

34:                                               ; preds = %27
  call void @llvm.lifetime.start.p0(i64 8, ptr %14) #20
  %35 = call ptr @__errno_location() #19
  %36 = load i32, ptr %35, align 4, !tbaa !8
  %37 = call ptr @strerror(i32 noundef %36) #20
  store ptr %37, ptr %14, align 8, !tbaa !19
  %38 = load ptr, ptr @stderr, align 8, !tbaa !25
  %39 = load ptr, ptr %14, align 8, !tbaa !19
  %40 = call i32 (ptr, ptr, ...) @fprintf(ptr noundef %38, ptr noundef @.str, ptr noundef %39, ptr noundef @.str.1, i32 noundef 494) #20
  %41 = load ptr, ptr @stderr, align 8, !tbaa !25
  %42 = call i32 @fflush(ptr noundef %41)
  %43 = load ptr, ptr %14, align 8, !tbaa !19
  call void @_ZN3zmq9zmq_abortEPKc(ptr noundef %43)
  call void @llvm.lifetime.end.p0(i64 8, ptr %14) #20
  br label %44

44:                                               ; preds = %34, %27
  br label %45

45:                                               ; preds = %44
  br label %46

46:                                               ; preds = %45
  call void @llvm.lifetime.start.p0(i64 4, ptr %15) #20
  %47 = load ptr, ptr %10, align 8, !tbaa !17
  %48 = load i32, ptr %9, align 4, !tbaa !8
  %49 = call noundef i32 @_ZL9s_recvmsgPN3zmq13socket_base_tEP9zmq_msg_ti(ptr noundef %47, ptr noundef %12, i32 noundef %48)
  store i32 %49, ptr %15, align 4, !tbaa !8
  %50 = load i32, ptr %15, align 4, !tbaa !8
  %51 = icmp slt i32 %50, 0
  %52 = zext i1 %51 to i64
  %53 = call i64 @llvm.expect.i64(i64 %52, i64 0)
  %54 = icmp ne i64 %53, 0
  br i1 %54, label %55, label %81

55:                                               ; preds = %46
  call void @llvm.lifetime.start.p0(i64 4, ptr %16) #20
  %56 = call ptr @__errno_location() #19
  %57 = load i32, ptr %56, align 4, !tbaa !8
  store i32 %57, ptr %16, align 4, !tbaa !8
  %58 = call i32 @zmq_msg_close(ptr noundef %12)
  store i32 %58, ptr %13, align 4, !tbaa !8
  br label %59

59:                                               ; preds = %55
  %60 = load i32, ptr %13, align 4, !tbaa !8
  %61 = icmp eq i32 %60, 0
  %62 = xor i1 %61, true
  %63 = zext i1 %62 to i64
  %64 = call i64 @llvm.expect.i64(i64 %63, i64 0)
  %65 = icmp ne i64 %64, 0
  br i1 %65, label %66, label %76

66:                                               ; preds = %59
  call void @llvm.lifetime.start.p0(i64 8, ptr %17) #20
  %67 = call ptr @__errno_location() #19
  %68 = load i32, ptr %67, align 4, !tbaa !8
  %69 = call ptr @strerror(i32 noundef %68) #20
  store ptr %69, ptr %17, align 8, !tbaa !19
  %70 = load ptr, ptr @stderr, align 8, !tbaa !25
  %71 = load ptr, ptr %17, align 8, !tbaa !19
  %72 = call i32 (ptr, ptr, ...) @fprintf(ptr noundef %70, ptr noundef @.str, ptr noundef %71, ptr noundef @.str.1, i32 noundef 500) #20
  %73 = load ptr, ptr @stderr, align 8, !tbaa !25
  %74 = call i32 @fflush(ptr noundef %73)
  %75 = load ptr, ptr %17, align 8, !tbaa !19
  call void @_ZN3zmq9zmq_abortEPKc(ptr noundef %75)
  call void @llvm.lifetime.end.p0(i64 8, ptr %17) #20
  br label %76

76:                                               ; preds = %66, %59
  br label %77

77:                                               ; preds = %76
  br label %78

78:                                               ; preds = %77
  %79 = load i32, ptr %16, align 4, !tbaa !8
  %80 = call ptr @__errno_location() #19
  store i32 %79, ptr %80, align 4, !tbaa !8
  store i32 -1, ptr %5, align 4
  store i32 1, ptr %11, align 4
  call void @llvm.lifetime.end.p0(i64 4, ptr %16) #20
  br label %122

81:                                               ; preds = %46
  call void @llvm.lifetime.start.p0(i64 8, ptr %18) #20
  %82 = load i32, ptr %15, align 4, !tbaa !8
  %83 = sext i32 %82 to i64
  %84 = load i64, ptr %8, align 8, !tbaa !13
  %85 = icmp ult i64 %83, %84
  br i1 %85, label %86, label %89

86:                                               ; preds = %81
  %87 = load i32, ptr %15, align 4, !tbaa !8
  %88 = sext i32 %87 to i64
  br label %91

89:                                               ; preds = %81
  %90 = load i64, ptr %8, align 8, !tbaa !13
  br label %91

91:                                               ; preds = %89, %86
  %92 = phi i64 [ %88, %86 ], [ %90, %89 ]
  store i64 %92, ptr %18, align 8, !tbaa !13
  %93 = load i64, ptr %18, align 8, !tbaa !13
  %94 = icmp ne i64 %93, 0
  br i1 %94, label %95, label %99

95:                                               ; preds = %91
  %96 = load ptr, ptr %7, align 8, !tbaa !12
  %97 = call ptr @zmq_msg_data(ptr noundef %12)
  %98 = load i64, ptr %18, align 8, !tbaa !13
  call void @llvm.memcpy.p0.p0.i64(ptr align 1 %96, ptr align 1 %97, i64 %98, i1 false)
  br label %99

99:                                               ; preds = %95, %91
  %100 = call i32 @zmq_msg_close(ptr noundef %12)
  store i32 %100, ptr %13, align 4, !tbaa !8
  br label %101

101:                                              ; preds = %99
  %102 = load i32, ptr %13, align 4, !tbaa !8
  %103 = icmp eq i32 %102, 0
  %104 = xor i1 %103, true
  %105 = zext i1 %104 to i64
  %106 = call i64 @llvm.expect.i64(i64 %105, i64 0)
  %107 = icmp ne i64 %106, 0
  br i1 %107, label %108, label %118

108:                                              ; preds = %101
  call void @llvm.lifetime.start.p0(i64 8, ptr %19) #20
  %109 = call ptr @__errno_location() #19
  %110 = load i32, ptr %109, align 4, !tbaa !8
  %111 = call ptr @strerror(i32 noundef %110) #20
  store ptr %111, ptr %19, align 8, !tbaa !19
  %112 = load ptr, ptr @stderr, align 8, !tbaa !25
  %113 = load ptr, ptr %19, align 8, !tbaa !19
  %114 = call i32 (ptr, ptr, ...) @fprintf(ptr noundef %112, ptr noundef @.str, ptr noundef %113, ptr noundef @.str.1, i32 noundef 514) #20
  %115 = load ptr, ptr @stderr, align 8, !tbaa !25
  %116 = call i32 @fflush(ptr noundef %115)
  %117 = load ptr, ptr %19, align 8, !tbaa !19
  call void @_ZN3zmq9zmq_abortEPKc(ptr noundef %117)
  call void @llvm.lifetime.end.p0(i64 8, ptr %19) #20
  br label %118

118:                                              ; preds = %108, %101
  br label %119

119:                                              ; preds = %118
  br label %120

120:                                              ; preds = %119
  %121 = load i32, ptr %15, align 4, !tbaa !8
  store i32 %121, ptr %5, align 4
  store i32 1, ptr %11, align 4
  call void @llvm.lifetime.end.p0(i64 8, ptr %18) #20
  br label %122

122:                                              ; preds = %120, %78
  call void @llvm.lifetime.end.p0(i64 4, ptr %15) #20
  call void @llvm.lifetime.end.p0(i64 4, ptr %13) #20
  call void @llvm.lifetime.end.p0(i64 64, ptr %12) #20
  br label %123

123:                                              ; preds = %122, %24
  call void @llvm.lifetime.end.p0(i64 8, ptr %10) #20
  %124 = load i32, ptr %5, align 4
  ret i32 %124
}