; Function Attrs: mustprogress uwtable
define range(i32 -1, -2147483648) i32 @zmq_recv(ptr noundef %0, ptr noundef writeonly captures(none) %1, i64 noundef %2, i32 noundef %3) local_unnamed_addr #1 {
  %5 = alloca %struct.zmq_msg_t, align 8
  %.not.i = icmp eq ptr %0, null
  br i1 %.not.i, label %_ZL16as_socket_base_tPv.exit.thread, label %6

6:                                                ; preds = %4
  %7 = tail call noundef zeroext i1 @_ZNK3zmq13socket_base_t9check_tagEv(ptr noundef nonnull align 8 dereferenceable(1825) %0)
  br i1 %7, label %_ZL16as_socket_base_tPv.exit, label %_ZL16as_socket_base_tPv.exit.thread

_ZL16as_socket_base_tPv.exit.thread:              ; preds = %4, %6
  %8 = tail call ptr @__errno_location() #20
  store i32 88, ptr %8, align 4, !tbaa !3
  br label %49

_ZL16as_socket_base_tPv.exit:                     ; preds = %6
  call void @llvm.lifetime.start.p0(i64 64, ptr nonnull %5) #22
  %9 = call noundef i32 @_ZN3zmq5msg_t4initEv(ptr noundef nonnull align 8 dereferenceable(64) %5)
  %.not26 = icmp eq i32 %9, 0
  br i1 %.not26, label %18, label %10, !prof !9

10:                                               ; preds = %_ZL16as_socket_base_tPv.exit
  %11 = tail call ptr @__errno_location() #20
  %12 = load i32, ptr %11, align 4, !tbaa !3
  %13 = call ptr @strerror(i32 noundef %12) #22
  %14 = load ptr, ptr @stderr, align 8, !tbaa !11
  %15 = call i32 (ptr, ptr, ...) @fprintf(ptr noundef %14, ptr noundef nonnull @.str, ptr noundef %13, ptr noundef nonnull @.str.1, i32 noundef 494) #24
  %16 = load ptr, ptr @stderr, align 8, !tbaa !11
  %17 = call i32 @fflush(ptr noundef %16)
  call void @_ZN3zmq9zmq_abortEPKc(ptr noundef %13)
  br label %18

18:                                               ; preds = %10, %_ZL16as_socket_base_tPv.exit
  %19 = call noundef i32 @_ZN3zmq13socket_base_t4recvEPNS_5msg_tEi(ptr noundef nonnull align 8 dereferenceable(1825) %0, ptr noundef nonnull %5, i32 noundef %3)
  %20 = icmp slt i32 %19, 0
  br i1 %20, label %_ZL9s_recvmsgPN3zmq13socket_base_tEP9zmq_msg_ti.exit.thread, label %_ZL9s_recvmsgPN3zmq13socket_base_tEP9zmq_msg_ti.exit, !prof !10

_ZL9s_recvmsgPN3zmq13socket_base_tEP9zmq_msg_ti.exit: ; preds = %18
  %21 = call noundef i64 @_ZNK3zmq5msg_t4sizeEv(ptr noundef nonnull align 8 dereferenceable(64) %5)
  %22 = call i64 @llvm.umin.i64(i64 %21, i64 2147483647)
  %23 = trunc nuw nsw i64 %22 to i32
  %24 = call i64 @llvm.umin.i64(i64 %2, i64 %22)
  %.not27 = icmp eq i64 %24, 0
  br i1 %.not27, label %38, label %36

_ZL9s_recvmsgPN3zmq13socket_base_tEP9zmq_msg_ti.exit.thread: ; preds = %18
  %25 = tail call ptr @__errno_location() #20
  %26 = load i32, ptr %25, align 4, !tbaa !3
  %27 = call noundef i32 @_ZN3zmq5msg_t5closeEv(ptr noundef nonnull align 8 dereferenceable(64) %5)
  %.not29 = icmp eq i32 %27, 0
  br i1 %.not29, label %35, label %28, !prof !9

28:                                               ; preds = %_ZL9s_recvmsgPN3zmq13socket_base_tEP9zmq_msg_ti.exit.thread
  %29 = load i32, ptr %25, align 4, !tbaa !3
  %30 = call ptr @strerror(i32 noundef %29) #22
  %31 = load ptr, ptr @stderr, align 8, !tbaa !11
  %32 = call i32 (ptr, ptr, ...) @fprintf(ptr noundef %31, ptr noundef nonnull @.str, ptr noundef %30, ptr noundef nonnull @.str.1, i32 noundef 500) #24
  %33 = load ptr, ptr @stderr, align 8, !tbaa !11
  %34 = call i32 @fflush(ptr noundef %33)
  call void @_ZN3zmq9zmq_abortEPKc(ptr noundef %30)
  br label %35

35:                                               ; preds = %28, %_ZL9s_recvmsgPN3zmq13socket_base_tEP9zmq_msg_ti.exit.thread
  store i32 %26, ptr %25, align 4, !tbaa !3
  br label %48

36:                                               ; preds = %_ZL9s_recvmsgPN3zmq13socket_base_tEP9zmq_msg_ti.exit
  %37 = call noundef ptr @_ZN3zmq5msg_t4dataEv(ptr noundef nonnull align 8 dereferenceable(64) %5)
  call void @llvm.memcpy.p0.p0.i64(ptr align 1 %1, ptr align 1 %37, i64 %24, i1 false)
  br label %38

38:                                               ; preds = %36, %_ZL9s_recvmsgPN3zmq13socket_base_tEP9zmq_msg_ti.exit
  %39 = call noundef i32 @_ZN3zmq5msg_t5closeEv(ptr noundef nonnull align 8 dereferenceable(64) %5)
  %.not28 = icmp eq i32 %39, 0
  br i1 %.not28, label %48, label %40, !prof !9

40:                                               ; preds = %38
  %41 = tail call ptr @__errno_location() #20
  %42 = load i32, ptr %41, align 4, !tbaa !3
  %43 = call ptr @strerror(i32 noundef %42) #22
  %44 = load ptr, ptr @stderr, align 8, !tbaa !11
  %45 = call i32 (ptr, ptr, ...) @fprintf(ptr noundef %44, ptr noundef nonnull @.str, ptr noundef %43, ptr noundef nonnull @.str.1, i32 noundef 514) #24
  %46 = load ptr, ptr @stderr, align 8, !tbaa !11
  %47 = call i32 @fflush(ptr noundef %46)
  call void @_ZN3zmq9zmq_abortEPKc(ptr noundef %43)
  br label %48

48:                                               ; preds = %38, %40, %35
  %.1 = phi i32 [ -1, %35 ], [ %23, %40 ], [ %23, %38 ]
  call void @llvm.lifetime.end.p0(i64 64, ptr nonnull %5) #22
  br label %49

49:                                               ; preds = %_ZL16as_socket_base_tPv.exit.thread, %48
  %.0 = phi i32 [ %.1, %48 ], [ -1, %_ZL16as_socket_base_tPv.exit.thread ]
  ret i32 %.0
}